target datalayout = "e-m:e-p270:32:32-p271:32:32-p272:64:64-i64:64-i128:128-f80:128-n8:16:32:64-S128"
target triple = "x86_64-pc-linux-gnu"

%struct.IDAMemRec = type { double, ptr, ptr, i32, double, double, ptr, i32, ptr, ptr, i32, ptr, ptr, i32, i32, double, double, ptr, i32, i32, i32, ptr, ptr, i32, ptr, ptr, ptr, i32, double, i32, i32, double, ptr, ptr, i32, ptr, ptr, i32, i32, i32, double, ptr, ptr, [6 x ptr], [6 x double], [6 x double], [6 x double], [6 x double], [6 x double], ptr, ptr, ptr, ptr, ptr, ptr, ptr, ptr, ptr, ptr, ptr, ptr, ptr, ptr, ptr, [6 x ptr], ptr, ptr, ptr, ptr, [6 x ptr], ptr, ptr, ptr, ptr, ptr, ptr, ptr, ptr, ptr, ptr, ptr, ptr, ptr, ptr, [6 x ptr], ptr, ptr, ptr, ptr, ptr, double, ptr, ptr, i32, i32, i32, i32, i32, i32, i32, double, double, double, i32, double, i32, i32, i32, i32, double, double, double, double, double, double, double, double, double, double, double, double, double, double, i32, i32, i32, i32, i32, i64, double, i32, i64, i64, i64, i64, i64, i64, i64, i64, i64, i64, i64, i64, i64, i64, i64, i64, i64, i64, i64, i64, i64, i64, i64, i64, ptr, ptr, ptr, i32, i32, i32, i32, i32, i32, i32, i32, i32, i32, i32, i32, i32, ptr, ptr, ptr, ptr, ptr, ptr, i32, i32, i32, i32, i32, i32, double, double, double, ptr, i32, ptr, ptr, double, double, double, ptr, ptr, ptr, double, double, i32, i32, i64, ptr, i32, i32, ptr, i32 }
%struct.IDASpilsMemRec = type { i32, i32, double, i32, i32, double, double, double, i64, i64, i64, i64, i64, i64, i64, i64, i64, i64, i64, i64, ptr, ptr, ptr, ptr, ptr, ptr, ptr, i64, ptr, ptr, ptr, ptr, i32, ptr, ptr }

@.str = private unnamed_addr constant [9 x i8] c"IDASPBCG\00", align 1
@.str.8 = private unnamed_addr constant [14 x i8] c"IDASpbcgSetup\00", align 1
@.str.9 = private unnamed_addr constant [68 x i8] c"The preconditioner setup routine failed in an unrecoverable manner.\00", align 1

; Function Attrs: nounwind uwtable
define internal i32 @IDASpbcgSetup(ptr noundef %0, ptr noundef %1, ptr noundef %2, ptr noundef %3, ptr noundef %4, ptr noundef %5, ptr noundef %6) #0 {
  %8 = alloca i32, align 4
  %9 = alloca ptr, align 8
  %10 = alloca ptr, align 8
  %11 = alloca ptr, align 8
  %12 = alloca ptr, align 8
  %13 = alloca ptr, align 8
  %14 = alloca ptr, align 8
  %15 = alloca ptr, align 8
  %16 = alloca i32, align 4
  %17 = alloca ptr, align 8
  %18 = alloca i32, align 4
  store ptr %0, ptr %9, align 8, !tbaa !9
  store ptr %1, ptr %10, align 8, !tbaa !62
  store ptr %2, ptr %11, align 8, !tbaa !62
  store ptr %3, ptr %12, align 8, !tbaa !62
  store ptr %4, ptr %13, align 8, !tbaa !62
  store ptr %5, ptr %14, align 8, !tbaa !62
  store ptr %6, ptr %15, align 8, !tbaa !62
  call void @llvm.lifetime.start.p0(i64 4, ptr %16) #5
  call void @llvm.lifetime.start.p0(i64 8, ptr %17) #5
  %19 = load ptr, ptr %9, align 8, !tbaa !9
  %20 = getelementptr inbounds nuw %struct.IDAMemRec, ptr %19, i32 0, i32 176
  %21 = load ptr, ptr %20, align 8, !tbaa !53
  store ptr %21, ptr %17, align 8, !tbaa !31
  %22 = load ptr, ptr %17, align 8, !tbaa !31
  %23 = getelementptr inbounds nuw %struct.IDASpilsMemRec, ptr %22, i32 0, i32 28
  %24 = load ptr, ptr %23, align 8, !tbaa !39
  %25 = load ptr, ptr %9, align 8, !tbaa !9
  %26 = getelementptr inbounds nuw %struct.IDAMemRec, ptr %25, i32 0, i32 112
  %27 = load double, ptr %26, align 8, !tbaa !63
  %28 = load ptr, ptr %10, align 8, !tbaa !62
  %29 = load ptr, ptr %11, align 8, !tbaa !62
  %30 = load ptr, ptr %12, align 8, !tbaa !62
  %31 = load ptr, ptr %9, align 8, !tbaa !9
  %32 = getelementptr inbounds nuw %struct.IDAMemRec, ptr %31, i32 0, i32 114
  %33 = load double, ptr %32, align 8, !tbaa !64
  %34 = load ptr, ptr %17, align 8, !tbaa !31
  %35 = getelementptr inbounds nuw %struct.IDASpilsMemRec, ptr %34, i32 0, i32 31
  %36 = load ptr, ptr %35, align 8, !tbaa !43
  %37 = load ptr, ptr %13, align 8, !tbaa !62
  %38 = load ptr, ptr %14, align 8, !tbaa !62
  %39 = load ptr, ptr %15, align 8, !tbaa !62
  %40 = call i32 %24(double noundef %27, ptr noundef %28, ptr noundef %29, ptr noundef %30, double noundef %33, ptr noundef %36, ptr noundef %37, ptr noundef %38, ptr noundef %39)
  store i32 %40, ptr %16, align 4, !tbaa !7
  %41 = load ptr, ptr %17, align 8, !tbaa !31
  %42 = getelementptr inbounds nuw %struct.IDASpilsMemRec, ptr %41, i32 0, i32 8
  %43 = load i64, ptr %42, align 8, !tbaa !57
  %44 = add nsw i64 %43, 1
  store i64 %44, ptr %42, align 8, !tbaa !57
  %45 = load i32, ptr %16, align 4, !tbaa !7
  %46 = icmp slt i32 %45, 0
  br i1 %46, label %47, label %51

47:                                               ; preds = %7
  %48 = load ptr, ptr %9, align 8, !tbaa !9
  call void (ptr, i32, ptr, ptr, ptr, ...) @IDAProcessError(ptr noundef %48, i32 noundef -4, ptr noundef @.str, ptr noundef @.str.8, ptr noundef @.str.9)
  %49 = load ptr, ptr %17, align 8, !tbaa !31
  %50 = getelementptr inbounds nuw %struct.IDASpilsMemRec, ptr %49, i32 0, i32 27
  store i64 -4, ptr %50, align 8, !tbaa !46
  store i32 -1, ptr %8, align 4
  store i32 1, ptr %18, align 4
  br label %60

51:                                               ; preds = %7
  %52 = load i32, ptr %16, align 4, !tbaa !7
  %53 = icmp sgt i32 %52, 0
  br i1 %53, label %54, label %57

54:                                               ; preds = %51
  %55 = load ptr, ptr %17, align 8, !tbaa !31
  %56 = getelementptr inbounds nuw %struct.IDASpilsMemRec, ptr %55, i32 0, i32 27
  store i64 5, ptr %56, align 8, !tbaa !46
  store i32 1, ptr %8, align 4
  store i32 1, ptr %18, align 4
  br label %60

57:                                               ; preds = %51
  %58 = load ptr, ptr %17, align 8, !tbaa !31
  %59 = getelementptr inbounds nuw %struct.IDASpilsMemRec, ptr %58, i32 0, i32 27
  store i64 0, ptr %59, align 8, !tbaa !46
  store i32 0, ptr %8, align 4
  store i32 1, ptr %18, align 4
  br label %60

60:                                               ; preds = %57, %54, %47
  call void @llvm.lifetime.end.p0(i64 8, ptr %17) #5
  call void @llvm.lifetime.end.p0(i64 4, ptr %16) #5
  %61 = load i32, ptr %8, align 4
  ret i32 %61
}